target datalayout = "e-m:e-p270:32:32-p271:32:32-p272:64:64-i64:64-i128:128-f80:128-n8:16:32:64-S128"
target triple = "x86_64-pc-linux-gnu"

%"class.boost::log::v2_mt_posix::sinks::text_multifile_backend" = type { ptr }

; Function Attrs: mustprogress nounwind uwtable
define void @_ZN5boost3log11v2_mt_posix5sinks22text_multifile_backendD2Ev(ptr noundef nonnull align 8 dereferenceable(8) %0) unnamed_addr #2 align 2 {
  %2 = alloca ptr, align 8
  store ptr %0, ptr %2, align 8, !tbaa !3
  %3 = load ptr, ptr %2, align 8
  %4 = getelementptr inbounds nuw %"class.boost::log::v2_mt_posix::sinks::text_multifile_backend", ptr %3, i32 0, i32 0
  %5 = load ptr, ptr %4, align 8, !tbaa !9
  %6 = icmp eq ptr %5, null
  br i1 %6, label %8, label %7

7:                                                ; preds = %1
  call void @_ZN5boost3log11v2_mt_posix5sinks22text_multifile_backend14implementationD2Ev(ptr noundef nonnull align 8 dereferenceable(556) %5) #16
  call void @_ZdlPvm(ptr noundef %5, i64 noundef 560) #19
  br label %8

8:                                                ; preds = %7, %1
  ret void
}