; Function Attrs: mustprogress nounwind uwtable
define void @_ZN5boost3log11v2_mt_posix5sinks22text_multifile_backendD2Ev(ptr nocapture noundef nonnull readonly align 8 dereferenceable(8) %0) unnamed_addr #6 align 2 {
  %2 = load ptr, ptr %0, align 8, !tbaa !31
  %3 = icmp eq ptr %2, null
  br i1 %3, label %5, label %4

4:                                                ; preds = %1
  tail call void @_ZN5boost3log11v2_mt_posix5sinks22text_multifile_backend14implementationD2Ev(ptr noundef nonnull align 8 dereferenceable(556) %2) #18
  tail call void @_ZdlPvm(ptr noundef nonnull %2, i64 noundef 560) #21
  br label %5

5:                                                ; preds = %4, %1
  ret void
}